; Function Attrs: mustprogress nofree norecurse nosync nounwind willreturn memory(argmem: readwrite) uwtable
define internal noundef zeroext i1 @"_ZNSt17_Function_handlerIFPKN4Luau4TypeES3_S3_EZL5mergeRNS0_9TypeArenaERSt13unordered_mapINS0_7VariantIJNS0_6SymbolENS0_5FieldEEEES3_NS0_12LValueHasherESt8equal_toISB_ESaISt4pairIKSB_S3_EEERKSJ_E3$_0E10_M_managerERSt9_Any_dataRKSP_St18_Manager_operation"(ptr noundef nonnull writeonly align 8 captures(none) dereferenceable(16) %0, ptr noundef nonnull align 8 dereferenceable(16) %1, i32 noundef %2) #13 align 2 personality ptr @__gxx_personality_v0 {
  switch i32 %2, label %"_ZNSt14_Function_base13_Base_managerIZL5mergeRN4Luau9TypeArenaERSt13unordered_mapINS1_7VariantIJNS1_6SymbolENS1_5FieldEEEEPKNS1_4TypeENS1_12LValueHasherESt8equal_toIS8_ESaISt4pairIKS8_SB_EEERKSJ_E3$_0E10_M_managerERSt9_Any_dataRKSP_St18_Manager_operation.exit" [
    i32 0, label %4
    i32 1, label %5
    i32 2, label %6
  ]

4:                                                ; preds = %3
  store ptr @"_ZTIZL5mergeRN4Luau9TypeArenaERSt13unordered_mapINS_7VariantIJNS_6SymbolENS_5FieldEEEEPKNS_4TypeENS_12LValueHasherESt8equal_toIS6_ESaISt4pairIKS6_S9_EEERKSH_E3$_0", ptr %0, align 8
  br label %"_ZNSt14_Function_base13_Base_managerIZL5mergeRN4Luau9TypeArenaERSt13unordered_mapINS1_7VariantIJNS1_6SymbolENS1_5FieldEEEEPKNS1_4TypeENS1_12LValueHasherESt8equal_toIS8_ESaISt4pairIKS8_SB_EEERKSJ_E3$_0E10_M_managerERSt9_Any_dataRKSP_St18_Manager_operation.exit"

5:                                                ; preds = %3
  store ptr %1, ptr %0, align 8
  br label %"_ZNSt14_Function_base13_Base_managerIZL5mergeRN4Luau9TypeArenaERSt13unordered_mapINS1_7VariantIJNS1_6SymbolENS1_5FieldEEEEPKNS1_4TypeENS1_12LValueHasherESt8equal_toIS8_ESaISt4pairIKS8_SB_EEERKSJ_E3$_0E10_M_managerERSt9_Any_dataRKSP_St18_Manager_operation.exit"

6:                                                ; preds = %3
  %.val.i = load i64, ptr %1, align 8
  store i64 %.val.i, ptr %0, align 8
  br label %"_ZNSt14_Function_base13_Base_managerIZL5mergeRN4Luau9TypeArenaERSt13unordered_mapINS1_7VariantIJNS1_6SymbolENS1_5FieldEEEEPKNS1_4TypeENS1_12LValueHasherESt8equal_toIS8_ESaISt4pairIKS8_SB_EEERKSJ_E3$_0E10_M_managerERSt9_Any_dataRKSP_St18_Manager_operation.exit"

"_ZNSt14_Function_base13_Base_managerIZL5mergeRN4Luau9TypeArenaERSt13unordered_mapINS1_7VariantIJNS1_6SymbolENS1_5FieldEEEEPKNS1_4TypeENS1_12LValueHasherESt8equal_toIS8_ESaISt4pairIKS8_SB_EEERKSJ_E3$_0E10_M_managerERSt9_Any_dataRKSP_St18_Manager_operation.exit": ; preds = %3, %6, %5, %4
  ret i1 false
}